; ModuleID = 'source-C-CXX/27/178.c'
source_filename = "source-C-CXX/27/178.c"
target datalayout = "e-m:e-p270:32:32-p271:32:32-p272:64:64-i64:64-f80:128-n8:16:32:64-S128"
target triple = "x86_64-pc-linux-gnu"

@.str = private unnamed_addr constant [3 x i8] c"%d\00", align 1
@.str.1 = private unnamed_addr constant [4 x i8] c",%d\00", align 1
@.str.2 = private unnamed_addr constant [5 x i8] c",%d\0A\00", align 1
@.str.3 = private unnamed_addr constant [4 x i8] c"%d\0A\00", align 1

; Function Attrs: nounwind sspstrong uwtable
define dso_local void @main() local_unnamed_addr #0 {
  %1 = alloca [1000 x i8], align 16
  %2 = getelementptr inbounds [1000 x i8], [1000 x i8]* %1, i64 0, i64 0
  call void @llvm.lifetime.start.p0i8(i64 1000, i8* nonnull %2) #4
  %3 = call i32 (i8*, ...) bitcast (i32 (...)* @gets to i32 (i8*, ...)*)(i8* nonnull %2) #4
  br label %4

4:                                                ; preds = %20, %0
  %5 = phi i64 [ %23, %20 ], [ 0, %0 ]
  %6 = phi i32 [ %21, %20 ], [ 0, %0 ]
  %7 = phi i32 [ %22, %20 ], [ 0, %0 ]
  %8 = getelementptr inbounds [1000 x i8], [1000 x i8]* %1, i64 0, i64 %5
  %9 = load i8, i8* %8, align 1, !tbaa !5
  switch i8 %9, label %10 [
    i8 0, label %24
    i8 32, label %12
  ]

10:                                               ; preds = %4
  %11 = add nsw i32 %6, 1
  br label %20

12:                                               ; preds = %4
  %13 = icmp eq i32 %6, 0
  br i1 %13, label %20, label %14

14:                                               ; preds = %12
  %15 = icmp eq i32 %7, 0
  br i1 %15, label %16, label %18

16:                                               ; preds = %14
  %17 = call i32 (i8*, ...) @printf(i8* nonnull dereferenceable(1) getelementptr inbounds ([3 x i8], [3 x i8]* @.str, i64 0, i64 0), i32 %6)
  br label %20

18:                                               ; preds = %14
  %19 = call i32 (i8*, ...) @printf(i8* nonnull dereferenceable(1) getelementptr inbounds ([4 x i8], [4 x i8]* @.str.1, i64 0, i64 0), i32 %6)
  br label %20

20:                                               ; preds = %16, %18, %10, %12
  %21 = phi i32 [ %11, %10 ], [ 0, %12 ], [ 0, %18 ], [ 0, %16 ]
  %22 = phi i32 [ %7, %10 ], [ %7, %12 ], [ 1, %18 ], [ 1, %16 ]
  %23 = add nuw i64 %5, 1
  br label %4, !llvm.loop !8

24:                                               ; preds = %4
  %25 = icmp eq i32 %6, 0
  br i1 %25, label %30, label %26

26:                                               ; preds = %24
  %27 = icmp eq i32 %7, 0
  %28 = select i1 %27, i8* getelementptr inbounds ([4 x i8], [4 x i8]* @.str.3, i64 0, i64 0), i8* getelementptr inbounds ([5 x i8], [5 x i8]* @.str.2, i64 0, i64 0)
  %29 = call i32 (i8*, ...) @printf(i8* nonnull dereferenceable(1) %28, i32 %6)
  br label %30

30:                                               ; preds = %26, %24
  call void @llvm.lifetime.end.p0i8(i64 1000, i8* nonnull %2) #4
  ret void
}

; Function Attrs: argmemonly mustprogress nofree nosync nounwind willreturn
declare void @llvm.lifetime.start.p0i8(i64 immarg, i8* nocapture) #1

declare i32 @gets(...) local_unnamed_addr #2

; Function Attrs: nofree nounwind
declare noundef i32 @printf(i8* nocapture noundef readonly, ...) local_unnamed_addr #3

; Function Attrs: argmemonly mustprogress nofree nosync nounwind willreturn
declare void @llvm.lifetime.end.p0i8(i64 immarg, i8* nocapture) #1


!llvm.module.flags = !{!0, !1, !2, !3}
!llvm.ident = !{!4}

!0 = !{i32 1, !"wchar_size", i32 4}
!1 = !{i32 7, !"PIC Level", i32 2}
!2 = !{i32 7, !"PIE Level", i32 2}
!3 = !{i32 7, !"uwtable", i32 1}
!4 = !{!"clang version 13.0.0"}
!5 = !{!6, !6, i64 0}
!6 = !{!"omnipotent char", !7, i64 0}
!7 = !{!"Simple C/C++ TBAA"}
!8 = distinct !{!8, !9}
!9 = !{!"llvm.loop.mustprogress"}
